target datalayout = "e-m:e-p270:32:32-p271:32:32-p272:64:64-i64:64-i128:128-f80:128-n8:16:32:64-S128"
target triple = "x86_64-pc-linux-gnu"

%"class.cv::Size_" = type { i32, i32 }
%"class.cv::xphoto::LearningBasedWBImpl" = type <{ %"class.cv::xphoto::LearningBasedWB", i32, i32, i32, float, float, float, i32, i32, i32, [4 x i8], ptr, ptr, ptr, %"class.cv::Mat", %"class.cv::Mat", %"class.cv::Mat", %"class.cv::Mat", i32, [4 x i8] }>
%"class.cv::xphoto::LearningBasedWB" = type { %"class.cv::xphoto::WhiteBalancer" }
%"class.cv::xphoto::WhiteBalancer" = type { %"class.cv::Algorithm" }
%"class.cv::Algorithm" = type { ptr }
%"class.cv::Mat" = type { i32, i32, i32, i32, ptr, ptr, ptr, ptr, ptr, ptr, %"struct.cv::MatSize", %"struct.cv::MatStep" }
%"struct.cv::MatSize" = type { ptr }
%"struct.cv::MatStep" = type { ptr, [2 x i64] }

; Function Attrs: inlinehint mustprogress nounwind uwtable
define linkonce_odr hidden void @_ZN2cv5Size_IiEC2Eii(ptr noundef nonnull align 4 dereferenceable(8) %0, i32 noundef %1, i32 noundef %2) unnamed_addr #5 comdat align 2 {
  %4 = alloca ptr, align 8
  %5 = alloca i32, align 4
  %6 = alloca i32, align 4
  store ptr %0, ptr %4, align 8, !tbaa !125
  store i32 %1, ptr %5, align 4, !tbaa !27
  store i32 %2, ptr %6, align 4, !tbaa !27
  %7 = load ptr, ptr %4, align 8
  %8 = getelementptr inbounds nuw %"class.cv::Size_", ptr %7, i32 0, i32 0
  %9 = load i32, ptr %5, align 4, !tbaa !27
  store i32 %9, ptr %8, align 4, !tbaa !127
  %10 = getelementptr inbounds nuw %"class.cv::Size_", ptr %7, i32 0, i32 1
  %11 = load i32, ptr %6, align 4, !tbaa !27
  store i32 %11, ptr %10, align 4, !tbaa !129
  ret void
}

; Function Attrs: inlinehint mustprogress nounwind uwtable
define linkonce_odr noundef nonnull align 2 dereferenceable(2) ptr @_ZSt3maxItERKT_S2_S2_(ptr noundef nonnull align 2 dereferenceable(2) %0, ptr noundef nonnull align 2 dereferenceable(2) %1) #5 comdat {
  %3 = alloca ptr, align 8
  %4 = alloca ptr, align 8
  %5 = alloca ptr, align 8
  store ptr %0, ptr %4, align 8, !tbaa !39
  store ptr %1, ptr %5, align 8, !tbaa !39
  %6 = load ptr, ptr %4, align 8, !tbaa !39
  %7 = load i16, ptr %6, align 2, !tbaa !41
  %8 = zext i16 %7 to i32
  %9 = load ptr, ptr %5, align 8, !tbaa !39
  %10 = load i16, ptr %9, align 2, !tbaa !41
  %11 = zext i16 %10 to i32
  %12 = icmp slt i32 %8, %11
  br i1 %12, label %13, label %15

13:                                               ; preds = %2
  %14 = load ptr, ptr %5, align 8, !tbaa !39
  store ptr %14, ptr %3, align 8
  br label %17

15:                                               ; preds = %2
  %16 = load ptr, ptr %4, align 8, !tbaa !39
  store ptr %16, ptr %3, align 8
  br label %17

17:                                               ; preds = %15, %13
  %18 = load ptr, ptr %3, align 8
  ret ptr %18
}

; Function Attrs: inlinehint mustprogress nounwind uwtable
define linkonce_odr hidden noundef ptr @_ZN2cv3Mat3ptrItEEPT_i(ptr noundef nonnull align 8 dereferenceable(96) %0, i32 noundef %1) #5 comdat align 2 {
  %3 = alloca ptr, align 8
  %4 = alloca i32, align 4
  store ptr %0, ptr %3, align 8, !tbaa !13
  store i32 %1, ptr %4, align 4, !tbaa !27
  %5 = load ptr, ptr %3, align 8
  %6 = getelementptr inbounds nuw %"class.cv::Mat", ptr %5, i32 0, i32 4
  %7 = load ptr, ptr %6, align 8, !tbaa !47
  %8 = getelementptr inbounds nuw %"class.cv::Mat", ptr %5, i32 0, i32 11
  %9 = getelementptr inbounds nuw %"struct.cv::MatStep", ptr %8, i32 0, i32 0
  %10 = load ptr, ptr %9, align 8, !tbaa !48
  %11 = getelementptr inbounds i64, ptr %10, i64 0
  %12 = load i64, ptr %11, align 8, !tbaa !49
  %13 = load i32, ptr %4, align 4, !tbaa !27
  %14 = sext i32 %13 to i64
  %15 = mul i64 %12, %14
  %16 = getelementptr inbounds nuw i8, ptr %7, i64 %15
  ret ptr %16
}

; Function Attrs: inlinehint mustprogress nounwind uwtable
define linkonce_odr noundef nonnull align 1 dereferenceable(1) ptr @_ZSt3maxIhERKT_S2_S2_(ptr noundef nonnull align 1 dereferenceable(1) %0, ptr noundef nonnull align 1 dereferenceable(1) %1) #5 comdat {
  %3 = alloca ptr, align 8
  %4 = alloca ptr, align 8
  %5 = alloca ptr, align 8
  store ptr %0, ptr %4, align 8, !tbaa !15
  store ptr %1, ptr %5, align 8, !tbaa !15
  %6 = load ptr, ptr %4, align 8, !tbaa !15
  %7 = load i8, ptr %6, align 1, !tbaa !36
  %8 = zext i8 %7 to i32
  %9 = load ptr, ptr %5, align 8, !tbaa !15
  %10 = load i8, ptr %9, align 1, !tbaa !36
  %11 = zext i8 %10 to i32
  %12 = icmp slt i32 %8, %11
  br i1 %12, label %13, label %15

13:                                               ; preds = %2
  %14 = load ptr, ptr %5, align 8, !tbaa !15
  store ptr %14, ptr %3, align 8
  br label %17

15:                                               ; preds = %2
  %16 = load ptr, ptr %4, align 8, !tbaa !15
  store ptr %16, ptr %3, align 8
  br label %17

17:                                               ; preds = %15, %13
  %18 = load ptr, ptr %3, align 8
  ret ptr %18
}

; Function Attrs: inlinehint mustprogress nounwind uwtable
define linkonce_odr hidden noundef i32 @_ZNK2cv3Mat4typeEv(ptr noundef nonnull align 8 dereferenceable(96) %0) #5 comdat align 2 {
  %2 = alloca ptr, align 8
  store ptr %0, ptr %2, align 8, !tbaa !13
  %3 = load ptr, ptr %2, align 8
  %4 = getelementptr inbounds nuw %"class.cv::Mat", ptr %3, i32 0, i32 0
  %5 = load i32, ptr %4, align 8, !tbaa !51
  %6 = and i32 %5, 4095
  ret i32 %6
}

; Function Attrs: inlinehint mustprogress nounwind uwtable
define linkonce_odr hidden noundef ptr @_ZN2cv3Mat3ptrIhEEPT_i(ptr noundef nonnull align 8 dereferenceable(96) %0, i32 noundef %1) #5 comdat align 2 {
  %3 = alloca ptr, align 8
  %4 = alloca i32, align 4
  store ptr %0, ptr %3, align 8, !tbaa !13
  store i32 %1, ptr %4, align 4, !tbaa !27
  %5 = load ptr, ptr %3, align 8
  %6 = getelementptr inbounds nuw %"class.cv::Mat", ptr %5, i32 0, i32 4
  %7 = load ptr, ptr %6, align 8, !tbaa !47
  %8 = getelementptr inbounds nuw %"class.cv::Mat", ptr %5, i32 0, i32 11
  %9 = getelementptr inbounds nuw %"struct.cv::MatStep", ptr %8, i32 0, i32 0
  %10 = load ptr, ptr %9, align 8, !tbaa !48
  %11 = getelementptr inbounds i64, ptr %10, i64 0
  %12 = load i64, ptr %11, align 8, !tbaa !49
  %13 = load i32, ptr %4, align 4, !tbaa !27
  %14 = sext i32 %13 to i64
  %15 = mul i64 %12, %14
  %16 = getelementptr inbounds nuw i8, ptr %7, i64 %15
  ret ptr %16
}

; Function Attrs: inlinehint mustprogress uwtable
define linkonce_odr hidden i64 @_ZNK2cv7MatSizeclEv(ptr noundef nonnull align 8 dereferenceable(8) %0) #3 comdat align 2 {
  %2 = alloca %"class.cv::Size_", align 4
  %3 = alloca ptr, align 8
  store ptr %0, ptr %3, align 8, !tbaa !44
  %4 = load ptr, ptr %3, align 8
  %5 = getelementptr inbounds nuw %"struct.cv::MatSize", ptr %4, i32 0, i32 0
  %6 = load ptr, ptr %5, align 8, !tbaa !46
  %7 = getelementptr inbounds i32, ptr %6, i64 1
  %8 = load i32, ptr %7, align 4, !tbaa !27
  %9 = getelementptr inbounds nuw %"struct.cv::MatSize", ptr %4, i32 0, i32 0
  %10 = load ptr, ptr %9, align 8, !tbaa !46
  %11 = getelementptr inbounds i32, ptr %10, i64 0
  %12 = load i32, ptr %11, align 4, !tbaa !27
  call void @_ZN2cv5Size_IiEC2Eii(ptr noundef nonnull align 4 dereferenceable(8) %2, i32 noundef %8, i32 noundef %12)
  %13 = load i64, ptr %2, align 4
  ret i64 %13
}

; Function Attrs: mustprogress uwtable
define hidden void @_ZN2cv6xphoto19LearningBasedWBImpl13preprocessingERNS_3MatE(ptr noundef nonnull align 8 dereferenceable(460) %0, ptr noundef nonnull align 8 dereferenceable(96) %1) #1 align 2 {
  %3 = alloca ptr, align 8
  %4 = alloca ptr, align 8
  %5 = alloca %"class.cv::Size_", align 4
  %6 = alloca ptr, align 8
  %7 = alloca i32, align 4
  %8 = alloca i32, align 4
  %9 = alloca i32, align 4
  %10 = alloca i32, align 4
  %11 = alloca ptr, align 8
  %12 = alloca ptr, align 8
  store ptr %0, ptr %3, align 8, !tbaa !11
  store ptr %1, ptr %4, align 8, !tbaa !13
  %13 = load ptr, ptr %3, align 8
  %14 = getelementptr inbounds nuw %"class.cv::xphoto::LearningBasedWBImpl", ptr %13, i32 0, i32 17
  %15 = load ptr, ptr %4, align 8, !tbaa !13
  %16 = getelementptr inbounds nuw %"class.cv::Mat", ptr %15, i32 0, i32 10
  %17 = call i64 @_ZNK2cv7MatSizeclEv(ptr noundef nonnull align 8 dereferenceable(8) %16)
  store i64 %17, ptr %5, align 4
  %18 = load i64, ptr %5, align 4
  call void @_ZN2cv3Mat6createENS_5Size_IiEEi(ptr noundef nonnull align 8 dereferenceable(96) %14, i64 %18, i32 noundef 0)
  call void @llvm.lifetime.start.p0(i64 8, ptr %6) #22
  %19 = getelementptr inbounds nuw %"class.cv::xphoto::LearningBasedWBImpl", ptr %13, i32 0, i32 17
  %20 = call noundef ptr @_ZN2cv3Mat3ptrIhEEPT_i(ptr noundef nonnull align 8 dereferenceable(96) %19, i32 noundef 0)
  store ptr %20, ptr %6, align 8, !tbaa !15
  call void @llvm.lifetime.start.p0(i64 4, ptr %7) #22
  %21 = load ptr, ptr %4, align 8, !tbaa !13
  %22 = getelementptr inbounds nuw %"class.cv::Mat", ptr %21, i32 0, i32 2
  %23 = load i32, ptr %22, align 8, !tbaa !17
  %24 = load ptr, ptr %4, align 8, !tbaa !13
  %25 = getelementptr inbounds nuw %"class.cv::Mat", ptr %24, i32 0, i32 3
  %26 = load i32, ptr %25, align 4, !tbaa !26
  %27 = mul nsw i32 %23, %26
  store i32 %27, ptr %7, align 4, !tbaa !27
  call void @llvm.lifetime.start.p0(i64 4, ptr %8) #22
  %28 = getelementptr inbounds nuw %"class.cv::xphoto::LearningBasedWBImpl", ptr %13, i32 0, i32 4
  %29 = load float, ptr %28, align 4, !tbaa !28
  %30 = getelementptr inbounds nuw %"class.cv::xphoto::LearningBasedWBImpl", ptr %13, i32 0, i32 1
  %31 = load i32, ptr %30, align 8, !tbaa !34
  %32 = sitofp i32 %31 to float
  %33 = fmul float %29, %32
  %34 = fptosi float %33 to i32
  store i32 %34, ptr %8, align 4, !tbaa !27
  call void @llvm.lifetime.start.p0(i64 4, ptr %9) #22
  store i32 0, ptr %9, align 4, !tbaa !27
  call void @llvm.lifetime.start.p0(i64 4, ptr %10) #22
  %35 = getelementptr inbounds nuw %"class.cv::xphoto::LearningBasedWBImpl", ptr %13, i32 0, i32 18
  store i32 -1, ptr %35, align 8, !tbaa !35
  %36 = load ptr, ptr %4, align 8, !tbaa !13
  %37 = call noundef i32 @_ZNK2cv3Mat4typeEv(ptr noundef nonnull align 8 dereferenceable(96) %36)
  %38 = icmp eq i32 %37, 16
  br i1 %38, label %39, label %94

39:                                               ; preds = %2
  call void @llvm.lifetime.start.p0(i64 8, ptr %11) #22
  %40 = load ptr, ptr %4, align 8, !tbaa !13
  %41 = call noundef ptr @_ZN2cv3Mat3ptrIhEEPT_i(ptr noundef nonnull align 8 dereferenceable(96) %40, i32 noundef 0)
  store ptr %41, ptr %11, align 8, !tbaa !15
  br label %42

42:                                               ; preds = %90, %39
  %43 = load i32, ptr %9, align 4, !tbaa !27
  %44 = load i32, ptr %7, align 4, !tbaa !27
  %45 = icmp slt i32 %43, %44
  br i1 %45, label %46, label %93

46:                                               ; preds = %42
  %47 = load ptr, ptr %11, align 8, !tbaa !15
  %48 = load i32, ptr %9, align 4, !tbaa !27
  %49 = mul nsw i32 3, %48
  %50 = sext i32 %49 to i64
  %51 = getelementptr inbounds i8, ptr %47, i64 %50
  %52 = load ptr, ptr %11, align 8, !tbaa !15
  %53 = load i32, ptr %9, align 4, !tbaa !27
  %54 = mul nsw i32 3, %53
  %55 = add nsw i32 %54, 1
  %56 = sext i32 %55 to i64
  %57 = getelementptr inbounds i8, ptr %52, i64 %56
  %58 = load ptr, ptr %11, align 8, !tbaa !15
  %59 = load i32, ptr %9, align 4, !tbaa !27
  %60 = mul nsw i32 3, %59
  %61 = add nsw i32 %60, 2
  %62 = sext i32 %61 to i64
  %63 = getelementptr inbounds i8, ptr %58, i64 %62
  %64 = call noundef nonnull align 1 dereferenceable(1) ptr @_ZSt3maxIhERKT_S2_S2_(ptr noundef nonnull align 1 dereferenceable(1) %57, ptr noundef nonnull align 1 dereferenceable(1) %63)
  %65 = call noundef nonnull align 1 dereferenceable(1) ptr @_ZSt3maxIhERKT_S2_S2_(ptr noundef nonnull align 1 dereferenceable(1) %51, ptr noundef nonnull align 1 dereferenceable(1) %64)
  %66 = load i8, ptr %65, align 1, !tbaa !36
  %67 = zext i8 %66 to i32
  store i32 %67, ptr %10, align 4, !tbaa !27
  %68 = load i32, ptr %10, align 4, !tbaa !27
  %69 = getelementptr inbounds nuw %"class.cv::xphoto::LearningBasedWBImpl", ptr %13, i32 0, i32 18
  %70 = load i32, ptr %69, align 8, !tbaa !35
  %71 = icmp sgt i32 %68, %70
  br i1 %71, label %72, label %75

72:                                               ; preds = %46
  %73 = load i32, ptr %10, align 4, !tbaa !27
  %74 = getelementptr inbounds nuw %"class.cv::xphoto::LearningBasedWBImpl", ptr %13, i32 0, i32 18
  store i32 %73, ptr %74, align 8, !tbaa !35
  br label %75

75:                                               ; preds = %72, %46
  %76 = load i32, ptr %10, align 4, !tbaa !27
  %77 = load i32, ptr %8, align 4, !tbaa !27
  %78 = icmp slt i32 %76, %77
  br i1 %78, label %79, label %84

79:                                               ; preds = %75
  %80 = load ptr, ptr %6, align 8, !tbaa !15
  %81 = load i32, ptr %9, align 4, !tbaa !27
  %82 = sext i32 %81 to i64
  %83 = getelementptr inbounds i8, ptr %80, i64 %82
  store i8 -1, ptr %83, align 1, !tbaa !36
  br label %89

84:                                               ; preds = %75
  %85 = load ptr, ptr %6, align 8, !tbaa !15
  %86 = load i32, ptr %9, align 4, !tbaa !27
  %87 = sext i32 %86 to i64
  %88 = getelementptr inbounds i8, ptr %85, i64 %87
  store i8 0, ptr %88, align 1, !tbaa !36
  br label %89

89:                                               ; preds = %84, %79
  br label %90

90:                                               ; preds = %89
  %91 = load i32, ptr %9, align 4, !tbaa !27
  %92 = add nsw i32 %91, 1
  store i32 %92, ptr %9, align 4, !tbaa !27
  br label %42, !llvm.loop !37

93:                                               ; preds = %42
  call void @llvm.lifetime.end.p0(i64 8, ptr %11) #22
  br label %154

94:                                               ; preds = %2
  %95 = load ptr, ptr %4, align 8, !tbaa !13
  %96 = call noundef i32 @_ZNK2cv3Mat4typeEv(ptr noundef nonnull align 8 dereferenceable(96) %95)
  %97 = icmp eq i32 %96, 18
  br i1 %97, label %98, label %153

98:                                               ; preds = %94
  call void @llvm.lifetime.start.p0(i64 8, ptr %12) #22
  %99 = load ptr, ptr %4, align 8, !tbaa !13
  %100 = call noundef ptr @_ZN2cv3Mat3ptrItEEPT_i(ptr noundef nonnull align 8 dereferenceable(96) %99, i32 noundef 0)
  store ptr %100, ptr %12, align 8, !tbaa !39
  br label %101

101:                                              ; preds = %149, %98
  %102 = load i32, ptr %9, align 4, !tbaa !27
  %103 = load i32, ptr %7, align 4, !tbaa !27
  %104 = icmp slt i32 %102, %103
  br i1 %104, label %105, label %152

105:                                              ; preds = %101
  %106 = load ptr, ptr %12, align 8, !tbaa !39
  %107 = load i32, ptr %9, align 4, !tbaa !27
  %108 = mul nsw i32 3, %107
  %109 = sext i32 %108 to i64
  %110 = getelementptr inbounds i16, ptr %106, i64 %109
  %111 = load ptr, ptr %12, align 8, !tbaa !39
  %112 = load i32, ptr %9, align 4, !tbaa !27
  %113 = mul nsw i32 3, %112
  %114 = add nsw i32 %113, 1
  %115 = sext i32 %114 to i64
  %116 = getelementptr inbounds i16, ptr %111, i64 %115
  %117 = load ptr, ptr %12, align 8, !tbaa !39
  %118 = load i32, ptr %9, align 4, !tbaa !27
  %119 = mul nsw i32 3, %118
  %120 = add nsw i32 %119, 2
  %121 = sext i32 %120 to i64
  %122 = getelementptr inbounds i16, ptr %117, i64 %121
  %123 = call noundef nonnull align 2 dereferenceable(2) ptr @_ZSt3maxItERKT_S2_S2_(ptr noundef nonnull align 2 dereferenceable(2) %116, ptr noundef nonnull align 2 dereferenceable(2) %122)
  %124 = call noundef nonnull align 2 dereferenceable(2) ptr @_ZSt3maxItERKT_S2_S2_(ptr noundef nonnull align 2 dereferenceable(2) %110, ptr noundef nonnull align 2 dereferenceable(2) %123)
  %125 = load i16, ptr %124, align 2, !tbaa !41
  %126 = zext i16 %125 to i32
  store i32 %126, ptr %10, align 4, !tbaa !27
  %127 = load i32, ptr %10, align 4, !tbaa !27
  %128 = getelementptr inbounds nuw %"class.cv::xphoto::LearningBasedWBImpl", ptr %13, i32 0, i32 18
  %129 = load i32, ptr %128, align 8, !tbaa !35
  %130 = icmp sgt i32 %127, %129
  br i1 %130, label %131, label %134

131:                                              ; preds = %105
  %132 = load i32, ptr %10, align 4, !tbaa !27
  %133 = getelementptr inbounds nuw %"class.cv::xphoto::LearningBasedWBImpl", ptr %13, i32 0, i32 18
  store i32 %132, ptr %133, align 8, !tbaa !35
  br label %134

134:                                              ; preds = %131, %105
  %135 = load i32, ptr %10, align 4, !tbaa !27
  %136 = load i32, ptr %8, align 4, !tbaa !27
  %137 = icmp slt i32 %135, %136
  br i1 %137, label %138, label %143

138:                                              ; preds = %134
  %139 = load ptr, ptr %6, align 8, !tbaa !15
  %140 = load i32, ptr %9, align 4, !tbaa !27
  %141 = sext i32 %140 to i64
  %142 = getelementptr inbounds i8, ptr %139, i64 %141
  store i8 -1, ptr %142, align 1, !tbaa !36
  br label %148

143:                                              ; preds = %134
  %144 = load ptr, ptr %6, align 8, !tbaa !15
  %145 = load i32, ptr %9, align 4, !tbaa !27
  %146 = sext i32 %145 to i64
  %147 = getelementptr inbounds i8, ptr %144, i64 %146
  store i8 0, ptr %147, align 1, !tbaa !36
  br label %148

148:                                              ; preds = %143, %138
  br label %149

149:                                              ; preds = %148
  %150 = load i32, ptr %9, align 4, !tbaa !27
  %151 = add nsw i32 %150, 1
  store i32 %151, ptr %9, align 4, !tbaa !27
  br label %101, !llvm.loop !43

152:                                              ; preds = %101
  call void @llvm.lifetime.end.p0(i64 8, ptr %12) #22
  br label %153

153:                                              ; preds = %152, %94
  br label %154

154:                                              ; preds = %153, %93
  call void @llvm.lifetime.end.p0(i64 4, ptr %10) #22
  call void @llvm.lifetime.end.p0(i64 4, ptr %9) #22
  call void @llvm.lifetime.end.p0(i64 4, ptr %8) #22
  call void @llvm.lifetime.end.p0(i64 4, ptr %7) #22
  call void @llvm.lifetime.end.p0(i64 8, ptr %6) #22
  ret void
}