; Function Attrs: mustprogress uwtable
define hidden void @_ZN2cv6xphoto19LearningBasedWBImpl13preprocessingERNS_3MatE(ptr noundef nonnull align 8 dereferenceable(460) %0, ptr noundef nonnull readonly align 8 captures(none) dereferenceable(96) %1) local_unnamed_addr #1 align 2 {
  %3 = getelementptr inbounds nuw i8, ptr %0, i64 360
  %4 = getelementptr inbounds nuw i8, ptr %1, i64 64
  %5 = load ptr, ptr %4, align 8, !tbaa !8
  %6 = getelementptr inbounds nuw i8, ptr %5, i64 4
  %7 = load i32, ptr %6, align 4, !tbaa !12
  %8 = load i32, ptr %5, align 4, !tbaa !12
  %.sroa.2.0.insert.ext.i = zext i32 %8 to i64
  %.sroa.2.0.insert.shift.i = shl nuw i64 %.sroa.2.0.insert.ext.i, 32
  %.sroa.0.0.insert.ext.i = zext i32 %7 to i64
  %.sroa.0.0.insert.insert.i = or disjoint i64 %.sroa.2.0.insert.shift.i, %.sroa.0.0.insert.ext.i
  tail call void @_ZN2cv3Mat6createENS_5Size_IiEEi(ptr noundef nonnull align 8 dereferenceable(96) %3, i64 %.sroa.0.0.insert.insert.i, i32 noundef 0)
  %9 = getelementptr inbounds nuw i8, ptr %0, i64 376
  %10 = load ptr, ptr %9, align 8, !tbaa !14
  %11 = getelementptr inbounds nuw i8, ptr %1, i64 8
  %12 = load i32, ptr %11, align 8, !tbaa !21
  %13 = getelementptr inbounds nuw i8, ptr %1, i64 12
  %14 = load i32, ptr %13, align 4, !tbaa !22
  %15 = mul i32 %14, %12
  %16 = getelementptr inbounds nuw i8, ptr %0, i64 20
  %17 = load float, ptr %16, align 4, !tbaa !23
  %18 = getelementptr inbounds nuw i8, ptr %0, i64 8
  %19 = load i32, ptr %18, align 8, !tbaa !29
  %20 = sitofp i32 %19 to float
  %21 = fmul float %17, %20
  %22 = fptosi float %21 to i32
  %23 = getelementptr inbounds nuw i8, ptr %0, i64 456
  store i32 -1, ptr %23, align 8, !tbaa !30
  %24 = load i32, ptr %1, align 8, !tbaa !31
  %25 = and i32 %24, 4095
  switch i32 %25, label %.loopexit [
    i32 16, label %26
    i32 18, label %46
  ]

26:                                               ; preds = %2
  %27 = getelementptr inbounds nuw i8, ptr %1, i64 16
  %28 = load ptr, ptr %27, align 8, !tbaa !14
  %29 = icmp sgt i32 %15, 0
  br i1 %29, label %.lr.ph53.preheader, label %.loopexit

.lr.ph53.preheader:                               ; preds = %26
  %wide.trip.count59 = zext nneg i32 %15 to i64
  br label %.lr.ph53

.lr.ph53:                                         ; preds = %.lr.ph53.preheader, %43
  %indvars.iv56 = phi i64 [ 0, %.lr.ph53.preheader ], [ %indvars.iv.next57, %43 ]
  %30 = mul nuw nsw i64 %indvars.iv56, 3
  %31 = getelementptr inbounds nuw i8, ptr %28, i64 %30
  %32 = getelementptr inbounds nuw i8, ptr %31, i64 1
  %33 = getelementptr inbounds nuw i8, ptr %31, i64 2
  %34 = load i8, ptr %32, align 1, !tbaa !32
  %35 = load i8, ptr %33, align 1, !tbaa !32
  %36 = load i8, ptr %31, align 1, !tbaa !32
  %37 = tail call i8 @llvm.umax.i8(i8 %34, i8 %35)
  %38 = tail call i8 @llvm.umax.i8(i8 %36, i8 %37)
  %39 = zext i8 %38 to i32
  %40 = load i32, ptr %23, align 8, !tbaa !30
  %41 = icmp slt i32 %40, %39
  br i1 %41, label %42, label %43

42:                                               ; preds = %.lr.ph53
  store i32 %39, ptr %23, align 8, !tbaa !30
  br label %43

43:                                               ; preds = %42, %.lr.ph53
  %44 = icmp slt i32 %39, %22
  %spec.select = sext i1 %44 to i8
  %45 = getelementptr inbounds nuw i8, ptr %10, i64 %indvars.iv56
  store i8 %spec.select, ptr %45, align 1, !tbaa !32
  %indvars.iv.next57 = add nuw nsw i64 %indvars.iv56, 1
  %exitcond60.not = icmp eq i64 %indvars.iv.next57, %wide.trip.count59
  br i1 %exitcond60.not, label %.loopexit, label %.lr.ph53, !llvm.loop !33

46:                                               ; preds = %2
  %47 = getelementptr inbounds nuw i8, ptr %1, i64 16
  %48 = load ptr, ptr %47, align 8, !tbaa !14
  %49 = icmp sgt i32 %15, 0
  br i1 %49, label %.lr.ph.preheader, label %.loopexit

.lr.ph.preheader:                                 ; preds = %46
  %wide.trip.count = zext nneg i32 %15 to i64
  br label %.lr.ph

.lr.ph:                                           ; preds = %.lr.ph.preheader, %62
  %indvars.iv = phi i64 [ 0, %.lr.ph.preheader ], [ %indvars.iv.next, %62 ]
  %.idx = mul nuw nsw i64 %indvars.iv, 6
  %50 = getelementptr inbounds nuw i8, ptr %48, i64 %.idx
  %51 = getelementptr inbounds nuw i8, ptr %50, i64 2
  %52 = getelementptr inbounds nuw i8, ptr %50, i64 4
  %53 = load i16, ptr %51, align 2, !tbaa !35
  %54 = load i16, ptr %52, align 2, !tbaa !35
  %55 = load i16, ptr %50, align 2, !tbaa !35
  %56 = tail call i16 @llvm.umax.i16(i16 %53, i16 %54)
  %57 = tail call i16 @llvm.umax.i16(i16 %55, i16 %56)
  %58 = zext i16 %57 to i32
  %59 = load i32, ptr %23, align 8, !tbaa !30
  %60 = icmp slt i32 %59, %58
  br i1 %60, label %61, label %62

61:                                               ; preds = %.lr.ph
  store i32 %58, ptr %23, align 8, !tbaa !30
  br label %62

62:                                               ; preds = %61, %.lr.ph
  %63 = icmp slt i32 %58, %22
  %spec.select63 = sext i1 %63 to i8
  %64 = getelementptr inbounds nuw i8, ptr %10, i64 %indvars.iv
  store i8 %spec.select63, ptr %64, align 1, !tbaa !32
  %indvars.iv.next = add nuw nsw i64 %indvars.iv, 1
  %exitcond.not = icmp eq i64 %indvars.iv.next, %wide.trip.count
  br i1 %exitcond.not, label %.loopexit, label %.lr.ph, !llvm.loop !37

.loopexit:                                        ; preds = %62, %43, %46, %26, %2
  ret void
}